target datalayout = "e-m:e-p270:32:32-p271:32:32-p272:64:64-i64:64-i128:128-f80:128-n8:16:32:64-S128"
target triple = "x86_64-pc-linux-gnu"

%class.ast = type { i32, i32, i32, i32 }
%class.app = type { %class.expr, ptr, i32, %struct.app_flags, [0 x ptr] }
%class.expr = type { %class.ast }
%struct.app_flags = type <{ i16, i8, i8 }>

; Function Attrs: mustprogress nounwind uwtable
define linkonce_odr hidden noundef i32 @_ZNK3ast6get_idEv(ptr noundef nonnull align 4 dereferenceable(16) %0) #8 comdat align 2 {
  %2 = alloca ptr, align 8
  store ptr %0, ptr %2, align 8, !tbaa !19
  %3 = load ptr, ptr %2, align 8
  %4 = getelementptr inbounds nuw %class.ast, ptr %3, i32 0, i32 0
  %5 = load i32, ptr %4, align 4, !tbaa !78
  ret i32 %5
}

; Function Attrs: mustprogress nounwind uwtable
define linkonce_odr hidden noundef i32 @_ZNK3app9get_depthEv(ptr noundef nonnull align 8 dereferenceable(32) %0) #8 comdat align 2 {
  %2 = alloca ptr, align 8
  store ptr %0, ptr %2, align 8, !tbaa !65
  %3 = load ptr, ptr %2, align 8
  %4 = getelementptr inbounds nuw %class.app, ptr %3, i32 0, i32 3
  %5 = load i16, ptr %4, align 4
  %6 = zext i16 %5 to i32
  ret i32 %6
}

; Function Attrs: inlinehint mustprogress uwtable
define internal noundef zeroext i1 @"_ZZN2qe9uflia_mbi11order_avarsER10ref_vectorI3app11ast_managerEENK3$_0clEPS2_S7_"(ptr noundef nonnull align 1 dereferenceable(1) %0, ptr noundef %1, ptr noundef %2) #6 align 2 {
  %4 = alloca ptr, align 8
  %5 = alloca ptr, align 8
  %6 = alloca ptr, align 8
  store ptr %0, ptr %4, align 8, !tbaa !79
  store ptr %1, ptr %5, align 8, !tbaa !65
  store ptr %2, ptr %6, align 8, !tbaa !65
  %7 = load ptr, ptr %5, align 8, !tbaa !65
  %8 = call noundef i32 @_ZNK3app9get_depthEv(ptr noundef nonnull align 8 dereferenceable(32) %7)
  %9 = load ptr, ptr %6, align 8, !tbaa !65
  %10 = call noundef i32 @_ZNK3app9get_depthEv(ptr noundef nonnull align 8 dereferenceable(32) %9)
  %11 = icmp ugt i32 %8, %10
  br i1 %11, label %26, label %12

12:                                               ; preds = %3
  %13 = load ptr, ptr %5, align 8, !tbaa !65
  %14 = call noundef i32 @_ZNK3app9get_depthEv(ptr noundef nonnull align 8 dereferenceable(32) %13)
  %15 = load ptr, ptr %6, align 8, !tbaa !65
  %16 = call noundef i32 @_ZNK3app9get_depthEv(ptr noundef nonnull align 8 dereferenceable(32) %15)
  %17 = icmp eq i32 %14, %16
  br i1 %17, label %18, label %24

18:                                               ; preds = %12
  %19 = load ptr, ptr %5, align 8, !tbaa !65
  %20 = call noundef i32 @_ZNK3ast6get_idEv(ptr noundef nonnull align 4 dereferenceable(16) %19)
  %21 = load ptr, ptr %6, align 8, !tbaa !65
  %22 = call noundef i32 @_ZNK3ast6get_idEv(ptr noundef nonnull align 4 dereferenceable(16) %21)
  %23 = icmp ugt i32 %20, %22
  br label %24

24:                                               ; preds = %18, %12
  %25 = phi i1 [ false, %12 ], [ %23, %18 ]
  br label %26

26:                                               ; preds = %24, %3
  %27 = phi i1 [ true, %3 ], [ %25, %24 ]
  ret i1 %27
}

; Function Attrs: mustprogress nounwind uwtable
define linkonce_odr hidden noundef ptr @_ZNKSt9_Any_data9_M_accessEv(ptr noundef nonnull align 8 dereferenceable(16) %0) #8 comdat align 2 {
  %2 = alloca ptr, align 8
  store ptr %0, ptr %2, align 8, !tbaa !600
  %3 = load ptr, ptr %2, align 8
  %4 = getelementptr inbounds [16 x i8], ptr %3, i64 0, i64 0
  ret ptr %4
}

; Function Attrs: mustprogress uwtable
define internal noundef zeroext i1 @"_ZSt13__invoke_implIbRZN2qe9uflia_mbi11order_avarsER10ref_vectorI3app11ast_managerEE3$_0JPS3_S9_EET_St14__invoke_otherOT0_DpOT1_"(ptr noundef nonnull align 1 dereferenceable(1) %0, ptr noundef nonnull align 8 dereferenceable(8) %1, ptr noundef nonnull align 8 dereferenceable(8) %2) #4 {
  %4 = alloca ptr, align 8
  %5 = alloca ptr, align 8
  %6 = alloca ptr, align 8
  store ptr %0, ptr %4, align 8, !tbaa !79
  store ptr %1, ptr %5, align 8, !tbaa !266
  store ptr %2, ptr %6, align 8, !tbaa !266
  %7 = load ptr, ptr %4, align 8, !tbaa !79
  %8 = load ptr, ptr %5, align 8, !tbaa !266
  %9 = load ptr, ptr %8, align 8, !tbaa !65
  %10 = load ptr, ptr %6, align 8, !tbaa !266
  %11 = load ptr, ptr %10, align 8, !tbaa !65
  %12 = call noundef zeroext i1 @"_ZZN2qe9uflia_mbi11order_avarsER10ref_vectorI3app11ast_managerEENK3$_0clEPS2_S7_"(ptr noundef nonnull align 1 dereferenceable(1) %7, ptr noundef %9, ptr noundef %11)
  ret i1 %12
}

; Function Attrs: mustprogress nounwind uwtable
define internal noundef nonnull align 1 dereferenceable(1) ptr @"_ZNKSt9_Any_data9_M_accessIZN2qe9uflia_mbi11order_avarsER10ref_vectorI3app11ast_managerEE3$_0EERKT_v"(ptr noundef nonnull align 8 dereferenceable(16) %0) #8 align 2 {
  %2 = alloca ptr, align 8
  store ptr %0, ptr %2, align 8, !tbaa !600
  %3 = load ptr, ptr %2, align 8
  %4 = call noundef ptr @_ZNKSt9_Any_data9_M_accessEv(ptr noundef nonnull align 8 dereferenceable(16) %3) #3
  ret ptr %4
}

; Function Attrs: mustprogress uwtable
define internal noundef zeroext i1 @"_ZSt10__invoke_rIbRZN2qe9uflia_mbi11order_avarsER10ref_vectorI3app11ast_managerEE3$_0JPS3_S9_EENSt9enable_ifIX16is_invocable_r_vIT_T0_DpT1_EESB_E4typeEOSC_DpOSD_"(ptr noundef nonnull align 1 dereferenceable(1) %0, ptr noundef nonnull align 8 dereferenceable(8) %1, ptr noundef nonnull align 8 dereferenceable(8) %2) #4 {
  %4 = alloca ptr, align 8
  %5 = alloca ptr, align 8
  %6 = alloca ptr, align 8
  store ptr %0, ptr %4, align 8, !tbaa !79
  store ptr %1, ptr %5, align 8, !tbaa !266
  store ptr %2, ptr %6, align 8, !tbaa !266
  %7 = load ptr, ptr %4, align 8, !tbaa !79
  %8 = load ptr, ptr %5, align 8, !tbaa !266
  %9 = load ptr, ptr %6, align 8, !tbaa !266
  %10 = call noundef zeroext i1 @"_ZSt13__invoke_implIbRZN2qe9uflia_mbi11order_avarsER10ref_vectorI3app11ast_managerEE3$_0JPS3_S9_EET_St14__invoke_otherOT0_DpOT1_"(ptr noundef nonnull align 1 dereferenceable(1) %7, ptr noundef nonnull align 8 dereferenceable(8) %8, ptr noundef nonnull align 8 dereferenceable(8) %9)
  ret i1 %10
}

; Function Attrs: mustprogress nounwind uwtable
define internal noundef ptr @"_ZNSt14_Function_base13_Base_managerIZN2qe9uflia_mbi11order_avarsER10ref_vectorI3app11ast_managerEE3$_0E14_M_get_pointerERKSt9_Any_data"(ptr noundef nonnull align 8 dereferenceable(16) %0) #8 align 2 {
  %2 = alloca ptr, align 8
  %3 = alloca ptr, align 8
  store ptr %0, ptr %2, align 8, !tbaa !600
  call void @llvm.lifetime.start.p0(i64 8, ptr %3) #3
  %4 = load ptr, ptr %2, align 8, !tbaa !600
  %5 = call noundef nonnull align 1 dereferenceable(1) ptr @"_ZNKSt9_Any_data9_M_accessIZN2qe9uflia_mbi11order_avarsER10ref_vectorI3app11ast_managerEE3$_0EERKT_v"(ptr noundef nonnull align 8 dereferenceable(16) %4) #3
  store ptr %5, ptr %3, align 8, !tbaa !79
  %6 = load ptr, ptr %3, align 8, !tbaa !79
  call void @llvm.lifetime.end.p0(i64 8, ptr %3) #3
  ret ptr %6
}

; Function Attrs: mustprogress uwtable
define internal noundef zeroext i1 @"_ZNSt17_Function_handlerIFbP3appS1_EZN2qe9uflia_mbi11order_avarsER10ref_vectorIS0_11ast_managerEE3$_0E9_M_invokeERKSt9_Any_dataOS1_SE_"(ptr noundef nonnull align 8 dereferenceable(16) %0, ptr noundef nonnull align 8 dereferenceable(8) %1, ptr noundef nonnull align 8 dereferenceable(8) %2) #4 align 2 {
  %4 = alloca ptr, align 8
  %5 = alloca ptr, align 8
  %6 = alloca ptr, align 8
  store ptr %0, ptr %4, align 8, !tbaa !600
  store ptr %1, ptr %5, align 8, !tbaa !266
  store ptr %2, ptr %6, align 8, !tbaa !266
  %7 = load ptr, ptr %4, align 8, !tbaa !600
  %8 = call noundef ptr @"_ZNSt14_Function_base13_Base_managerIZN2qe9uflia_mbi11order_avarsER10ref_vectorI3app11ast_managerEE3$_0E14_M_get_pointerERKSt9_Any_data"(ptr noundef nonnull align 8 dereferenceable(16) %7) #3
  %9 = load ptr, ptr %5, align 8, !tbaa !266
  %10 = load ptr, ptr %6, align 8, !tbaa !266
  %11 = call noundef zeroext i1 @"_ZSt10__invoke_rIbRZN2qe9uflia_mbi11order_avarsER10ref_vectorI3app11ast_managerEE3$_0JPS3_S9_EENSt9enable_ifIX16is_invocable_r_vIT_T0_DpT1_EESB_E4typeEOSC_DpOSD_"(ptr noundef nonnull align 1 dereferenceable(1) %8, ptr noundef nonnull align 8 dereferenceable(8) %9, ptr noundef nonnull align 8 dereferenceable(8) %10)
  ret i1 %11
}