; Function Attrs: mustprogress nofree norecurse nosync nounwind willreturn memory(read, inaccessiblemem: none) uwtable
define internal noundef zeroext i1 @"_ZNSt17_Function_handlerIFbP3appS1_EZN2qe9uflia_mbi11order_avarsER10ref_vectorIS0_11ast_managerEE3$_0E9_M_invokeERKSt9_Any_dataOS1_SE_"(ptr nonnull readnone align 8 captures(none) %0, ptr noundef nonnull readonly align 8 captures(none) dereferenceable(8) %1, ptr noundef nonnull readonly align 8 captures(none) dereferenceable(8) %2) #7 align 2 {
  %.val = load ptr, ptr %1, align 8, !tbaa !245
  %.val3 = load ptr, ptr %2, align 8, !tbaa !245
  %4 = getelementptr inbounds nuw i8, ptr %.val, i64 28
  %5 = load i16, ptr %4, align 4
  %6 = getelementptr inbounds nuw i8, ptr %.val3, i64 28
  %7 = load i16, ptr %6, align 4
  %8 = icmp ugt i16 %5, %7
  br i1 %8, label %"_ZSt10__invoke_rIbRZN2qe9uflia_mbi11order_avarsER10ref_vectorI3app11ast_managerEE3$_0JPS3_S9_EENSt9enable_ifIX16is_invocable_r_vIT_T0_DpT1_EESB_E4typeEOSC_DpOSD_.exit", label %9

9:                                                ; preds = %3
  %10 = icmp eq i16 %5, %7
  br i1 %10, label %11, label %"_ZSt10__invoke_rIbRZN2qe9uflia_mbi11order_avarsER10ref_vectorI3app11ast_managerEE3$_0JPS3_S9_EENSt9enable_ifIX16is_invocable_r_vIT_T0_DpT1_EESB_E4typeEOSC_DpOSD_.exit"

11:                                               ; preds = %9
  %12 = load i32, ptr %.val, align 4, !tbaa !88
  %13 = load i32, ptr %.val3, align 4, !tbaa !88
  %14 = icmp ugt i32 %12, %13
  br label %"_ZSt10__invoke_rIbRZN2qe9uflia_mbi11order_avarsER10ref_vectorI3app11ast_managerEE3$_0JPS3_S9_EENSt9enable_ifIX16is_invocable_r_vIT_T0_DpT1_EESB_E4typeEOSC_DpOSD_.exit"

"_ZSt10__invoke_rIbRZN2qe9uflia_mbi11order_avarsER10ref_vectorI3app11ast_managerEE3$_0JPS3_S9_EENSt9enable_ifIX16is_invocable_r_vIT_T0_DpT1_EESB_E4typeEOSC_DpOSD_.exit": ; preds = %3, %9, %11
  %15 = phi i1 [ true, %3 ], [ false, %9 ], [ %14, %11 ]
  ret i1 %15
}